target datalayout = "e-m:e-p270:32:32-p271:32:32-p272:64:64-i64:64-i128:128-f80:128-n8:16:32:64-S128"
target triple = "x86_64-unknown-linux-gnu"

%"class.std::__cxx11::basic_string" = type { %"struct.std::__cxx11::basic_string<char>::_Alloc_hider", i64, %union.anon }
%"struct.std::__cxx11::basic_string<char>::_Alloc_hider" = type { ptr }
%union.anon = type { i64, [8 x i8] }
%"class.Assimp::ZipFile" = type { %"class.Assimp::IOStream", %"class.std::__cxx11::basic_string", i64, i64, %"class.std::unique_ptr" }
%"class.Assimp::IOStream" = type { ptr }
%"class.std::unique_ptr" = type { %"struct.std::__uniq_ptr_data" }
%"struct.std::__uniq_ptr_data" = type { %"class.std::__uniq_ptr_impl" }
%"class.std::__uniq_ptr_impl" = type { %"class.std::tuple" }
%"class.std::tuple" = type { %"struct.std::_Tuple_impl" }
%"struct.std::_Tuple_impl" = type { %"struct.std::_Head_base.4" }
%"struct.std::_Head_base.4" = type { ptr }

@.str = private unnamed_addr constant [3 x i8] c"rb\00", align 1
@.str.1 = private unnamed_addr constant [4 x i8] c"r+b\00", align 1
@.str.2 = private unnamed_addr constant [3 x i8] c"wb\00", align 1
@.str.3 = private unnamed_addr constant [7 x i8] c".z%02u\00", align 1

; Function Attrs: mustprogress uwtable
define hidden noundef ptr @_ZN6Assimp14IOSystem2Unzip4openEPvPKci(ptr noundef %opaque, ptr noundef %filename, i32 noundef %mode) #2 align 2 {
entry:
  %opaque.addr = alloca ptr, align 8
  %filename.addr = alloca ptr, align 8
  %mode.addr = alloca i32, align 4
  %io_system = alloca ptr, align 8
  %mode_fopen = alloca ptr, align 8
  store ptr %opaque, ptr %opaque.addr, align 8
  store ptr %filename, ptr %filename.addr, align 8
  store i32 %mode, ptr %mode.addr, align 4
  %0 = load ptr, ptr %opaque.addr, align 8
  store ptr %0, ptr %io_system, align 8
  store ptr null, ptr %mode_fopen, align 8
  %1 = load i32, ptr %mode.addr, align 4
  %and = and i32 %1, 3
  %cmp = icmp eq i32 %and, 1
  br i1 %cmp, label %if.then, label %if.else

if.then:                                          ; preds = %entry
  store ptr @.str, ptr %mode_fopen, align 8
  br label %if.end8

if.else:                                          ; preds = %entry
  %2 = load i32, ptr %mode.addr, align 4
  %and1 = and i32 %2, 4
  %tobool = icmp ne i32 %and1, 0
  br i1 %tobool, label %if.then2, label %if.else3

if.then2:                                         ; preds = %if.else
  store ptr @.str.1, ptr %mode_fopen, align 8
  br label %if.end7

if.else3:                                         ; preds = %if.else
  %3 = load i32, ptr %mode.addr, align 4
  %and4 = and i32 %3, 8
  %tobool5 = icmp ne i32 %and4, 0
  br i1 %tobool5, label %if.then6, label %if.end

if.then6:                                         ; preds = %if.else3
  store ptr @.str.2, ptr %mode_fopen, align 8
  br label %if.end

if.end:                                           ; preds = %if.then6, %if.else3
  br label %if.end7

if.end7:                                          ; preds = %if.end, %if.then2
  br label %if.end8

if.end8:                                          ; preds = %if.end7, %if.then
  %4 = load ptr, ptr %io_system, align 8
  %5 = load ptr, ptr %filename.addr, align 8
  %6 = load ptr, ptr %mode_fopen, align 8
  %vtable = load ptr, ptr %4, align 8
  %vfn = getelementptr inbounds ptr, ptr %vtable, i64 4
  %7 = load ptr, ptr %vfn, align 8
  %call = call noundef ptr %7(ptr noundef nonnull align 8 dereferenceable(32) %4, ptr noundef %5, ptr noundef %6)
  ret ptr %call
}

; Function Attrs: mustprogress uwtable
define hidden noundef ptr @_ZN6Assimp14IOSystem2Unzip8opendiskEPvS1_ji(ptr noundef %opaque, ptr noundef %stream, i32 noundef %number_disk, i32 noundef %mode) #2 align 2 {
entry:
  %opaque.addr = alloca ptr, align 8
  %stream.addr = alloca ptr, align 8
  %number_disk.addr = alloca i32, align 4
  %mode.addr = alloca i32, align 4
  %io_stream = alloca ptr, align 8
  %ret = alloca ptr, align 8
  %i = alloca i32, align 4
  %disk_filename = alloca ptr, align 8
  store ptr %opaque, ptr %opaque.addr, align 8
  store ptr %stream, ptr %stream.addr, align 8
  store i32 %number_disk, ptr %number_disk.addr, align 4
  store i32 %mode, ptr %mode.addr, align 4
  %0 = load ptr, ptr %stream.addr, align 8
  store ptr %0, ptr %io_stream, align 8
  store ptr null, ptr %ret, align 8
  %1 = load ptr, ptr %io_stream, align 8
  %m_Filename = getelementptr inbounds %"class.Assimp::ZipFile", ptr %1, i32 0, i32 1
  %call = call noundef i64 @_ZNKSt7__cxx1112basic_stringIcSt11char_traitsIcESaIcEE6lengthEv(ptr noundef nonnull align 8 dereferenceable(32) %m_Filename) #9
  %add = add i64 %call, 1
  %call1 = call noalias ptr @malloc(i64 noundef %add) #15
  store ptr %call1, ptr %disk_filename, align 8
  %2 = load ptr, ptr %disk_filename, align 8
  %3 = load ptr, ptr %io_stream, align 8
  %m_Filename2 = getelementptr inbounds %"class.Assimp::ZipFile", ptr %3, i32 0, i32 1
  %call3 = call noundef ptr @_ZNKSt7__cxx1112basic_stringIcSt11char_traitsIcESaIcEE5c_strEv(ptr noundef nonnull align 8 dereferenceable(32) %m_Filename2) #9
  %4 = load ptr, ptr %io_stream, align 8
  %m_Filename4 = getelementptr inbounds %"class.Assimp::ZipFile", ptr %4, i32 0, i32 1
  %call5 = call noundef i64 @_ZNKSt7__cxx1112basic_stringIcSt11char_traitsIcESaIcEE6lengthEv(ptr noundef nonnull align 8 dereferenceable(32) %m_Filename4) #9
  %add6 = add i64 %call5, 1
  %call7 = call ptr @strncpy(ptr noundef %2, ptr noundef %call3, i64 noundef %add6) #9
  %5 = load ptr, ptr %io_stream, align 8
  %m_Filename8 = getelementptr inbounds %"class.Assimp::ZipFile", ptr %5, i32 0, i32 1
  %call9 = call noundef i64 @_ZNKSt7__cxx1112basic_stringIcSt11char_traitsIcESaIcEE6lengthEv(ptr noundef nonnull align 8 dereferenceable(32) %m_Filename8) #9
  %conv = trunc i64 %call9 to i32
  %sub = sub nsw i32 %conv, 1
  store i32 %sub, ptr %i, align 4
  br label %for.cond

for.cond:                                         ; preds = %for.inc, %entry
  %6 = load i32, ptr %i, align 4
  %cmp = icmp sge i32 %6, 0
  br i1 %cmp, label %for.body, label %for.end

for.body:                                         ; preds = %for.cond
  %7 = load ptr, ptr %disk_filename, align 8
  %8 = load i32, ptr %i, align 4
  %idxprom = sext i32 %8 to i64
  %arrayidx = getelementptr inbounds i8, ptr %7, i64 %idxprom
  %9 = load i8, ptr %arrayidx, align 1
  %conv10 = sext i8 %9 to i32
  %cmp11 = icmp ne i32 %conv10, 46
  br i1 %cmp11, label %if.then, label %if.end

if.then:                                          ; preds = %for.body
  br label %for.inc

if.end:                                           ; preds = %for.body
  %10 = load ptr, ptr %disk_filename, align 8
  %11 = load i32, ptr %i, align 4
  %idxprom12 = sext i32 %11 to i64
  %arrayidx13 = getelementptr inbounds i8, ptr %10, i64 %idxprom12
  %12 = load ptr, ptr %io_stream, align 8
  %m_Filename14 = getelementptr inbounds %"class.Assimp::ZipFile", ptr %12, i32 0, i32 1
  %call15 = call noundef i64 @_ZNKSt7__cxx1112basic_stringIcSt11char_traitsIcESaIcEE6lengthEv(ptr noundef nonnull align 8 dereferenceable(32) %m_Filename14) #9
  %13 = load i32, ptr %i, align 4
  %conv16 = sext i32 %13 to i64
  %sub17 = sub i64 %call15, %conv16
  %14 = load i32, ptr %number_disk.addr, align 4
  %add18 = add i32 %14, 1
  %call19 = call i32 (ptr, i64, ptr, ...) @snprintf(ptr noundef %arrayidx13, i64 noundef %sub17, ptr noundef @.str.3, i32 noundef %add18) #9
  br label %for.end

for.inc:                                          ; preds = %if.then
  %15 = load i32, ptr %i, align 4
  %sub20 = sub nsw i32 %15, 1
  store i32 %sub20, ptr %i, align 4
  br label %for.cond, !llvm.loop !4

for.end:                                          ; preds = %if.end, %for.cond
  %16 = load i32, ptr %i, align 4
  %cmp21 = icmp sge i32 %16, 0
  br i1 %cmp21, label %if.then22, label %if.end24

if.then22:                                        ; preds = %for.end
  %17 = load ptr, ptr %opaque.addr, align 8
  %18 = load ptr, ptr %disk_filename, align 8
  %19 = load i32, ptr %mode.addr, align 4
  %call23 = call noundef ptr @_ZN6Assimp14IOSystem2Unzip4openEPvPKci(ptr noundef %17, ptr noundef %18, i32 noundef %19)
  store ptr %call23, ptr %ret, align 8
  br label %if.end24

if.end24:                                         ; preds = %if.then22, %for.end
  %20 = load ptr, ptr %disk_filename, align 8
  call void @free(ptr noundef %20) #9
  %21 = load ptr, ptr %ret, align 8
  ret ptr %21
}