; Function Attrs: mustprogress uwtable
define hidden noundef ptr @_ZN6Assimp14IOSystem2Unzip8opendiskEPvS1_ji(ptr noundef %opaque, ptr noundef %stream, i32 noundef %number_disk, i32 noundef %mode) local_unnamed_addr #2 align 2 {
entry:
  %m_Filename = getelementptr inbounds i8, ptr %stream, i64 8
  %call = tail call noundef i64 @_ZNKSt7__cxx1112basic_stringIcSt11char_traitsIcESaIcEE6lengthEv(ptr noundef nonnull align 8 dereferenceable(32) %m_Filename) #28
  %add = add i64 %call, 1
  %call1 = tail call noalias ptr @malloc(i64 noundef %add) #29
  %call3 = tail call noundef ptr @_ZNKSt7__cxx1112basic_stringIcSt11char_traitsIcESaIcEE5c_strEv(ptr noundef nonnull align 8 dereferenceable(32) %m_Filename) #28
  %call5 = tail call noundef i64 @_ZNKSt7__cxx1112basic_stringIcSt11char_traitsIcESaIcEE6lengthEv(ptr noundef nonnull align 8 dereferenceable(32) %m_Filename) #28
  %add6 = add i64 %call5, 1
  %call7 = tail call ptr @strncpy(ptr noundef %call1, ptr noundef %call3, i64 noundef %add6) #28
  %call9 = tail call noundef i64 @_ZNKSt7__cxx1112basic_stringIcSt11char_traitsIcESaIcEE6lengthEv(ptr noundef nonnull align 8 dereferenceable(32) %m_Filename) #28
  %0 = and i64 %call9, 4294967295
  br label %for.cond

for.cond:                                         ; preds = %for.body, %entry
  %indvars.iv = phi i64 [ %2, %for.body ], [ %0, %entry ]
  %1 = trunc i64 %indvars.iv to i32
  %cmp = icmp sgt i32 %1, 0
  br i1 %cmp, label %for.body, label %if.end24

for.body:                                         ; preds = %for.cond
  %2 = add nsw i64 %indvars.iv, -1
  %arrayidx = getelementptr inbounds i8, ptr %call1, i64 %2
  %3 = load i8, ptr %arrayidx, align 1
  %cmp11.not = icmp eq i8 %3, 46
  br i1 %cmp11.not, label %if.then22, label %for.cond, !llvm.loop !4

if.then22:                                        ; preds = %for.body
  %arrayidx.le = getelementptr inbounds i8, ptr %call1, i64 %2
  %call15 = tail call noundef i64 @_ZNKSt7__cxx1112basic_stringIcSt11char_traitsIcESaIcEE6lengthEv(ptr noundef nonnull align 8 dereferenceable(32) %m_Filename) #28
  %sub17 = sub i64 %call15, %2
  %add18 = add i32 %number_disk, 1
  %call19 = tail call i32 (ptr, i64, ptr, ...) @snprintf(ptr noundef nonnull %arrayidx.le, i64 noundef %sub17, ptr noundef nonnull @.str.3, i32 noundef %add18) #28
  %and.i = and i32 %mode, 3
  %cmp.i = icmp eq i32 %and.i, 1
  br i1 %cmp.i, label %_ZN6Assimp14IOSystem2Unzip4openEPvPKci.exit, label %if.else.i

if.else.i:                                        ; preds = %if.then22
  %and1.i = and i32 %mode, 4
  %tobool.not.i = icmp eq i32 %and1.i, 0
  br i1 %tobool.not.i, label %if.else3.i, label %_ZN6Assimp14IOSystem2Unzip4openEPvPKci.exit

if.else3.i:                                       ; preds = %if.else.i
  %and4.i = and i32 %mode, 8
  %tobool5.not.i = icmp eq i32 %and4.i, 0
  %spec.select.i = select i1 %tobool5.not.i, ptr null, ptr @.str.2
  br label %_ZN6Assimp14IOSystem2Unzip4openEPvPKci.exit

_ZN6Assimp14IOSystem2Unzip4openEPvPKci.exit:      ; preds = %if.then22, %if.else.i, %if.else3.i
  %mode_fopen.0.i = phi ptr [ @.str, %if.then22 ], [ @.str.1, %if.else.i ], [ %spec.select.i, %if.else3.i ]
  %vtable.i = load ptr, ptr %opaque, align 8
  %vfn.i = getelementptr inbounds i8, ptr %vtable.i, i64 32
  %4 = load ptr, ptr %vfn.i, align 8
  %call.i = tail call noundef ptr %4(ptr noundef nonnull align 8 dereferenceable(32) %opaque, ptr noundef nonnull %call1, ptr noundef %mode_fopen.0.i)
  br label %if.end24

if.end24:                                         ; preds = %for.cond, %_ZN6Assimp14IOSystem2Unzip4openEPvPKci.exit
  %ret.0 = phi ptr [ %call.i, %_ZN6Assimp14IOSystem2Unzip4openEPvPKci.exit ], [ null, %for.cond ]
  tail call void @free(ptr noundef %call1) #28
  ret ptr %ret.0
}